; Function Attrs: nounwind uwtable
define range(i32 -38, 1) i32 @av_get_output_timestamp(ptr noundef %0, i32 noundef %1, ptr noundef %2, ptr noundef %3) local_unnamed_addr #0 {
  %5 = getelementptr inbounds nuw i8, ptr %0, i64 16
  %6 = load ptr, ptr %5, align 8, !tbaa !9
  %.not = icmp eq ptr %6, null
  br i1 %.not, label %11, label %7

7:                                                ; preds = %4
  %8 = getelementptr inbounds nuw i8, ptr %6, i64 112
  %9 = load ptr, ptr %8, align 8, !tbaa !161
  %.not10 = icmp eq ptr %9, null
  br i1 %.not10, label %11, label %10

10:                                               ; preds = %7
  tail call void %9(ptr noundef nonnull %0, i32 noundef %1, ptr noundef %2, ptr noundef %3) #13
  br label %11

11:                                               ; preds = %4, %7, %10
  %.0 = phi i32 [ 0, %10 ], [ -38, %7 ], [ -38, %4 ]
  ret i32 %.0
}